target datalayout = "e-m:e-p270:32:32-p271:32:32-p272:64:64-i64:64-i128:128-f80:128-n8:16:32:64-S128"
target triple = "x86_64-pc-linux-gnu"

%struct.Block = type { [2 x [2 x i16]], i32, i64, i32, ptr }

; Function Attrs: cold nounwind optsize uwtable
define internal void @free_blocks(ptr noundef %0, i32 noundef %1) #0 {
  %3 = alloca ptr, align 8
  %4 = alloca i32, align 4
  store ptr %0, ptr %3, align 8, !tbaa !100
  store i32 %1, ptr %4, align 4, !tbaa !34
  %5 = load ptr, ptr %3, align 8, !tbaa !100
  %6 = getelementptr inbounds nuw %struct.Block, ptr %5, i32 0, i32 4
  %7 = load ptr, ptr %6, align 8, !tbaa !175
  %8 = icmp ne ptr %7, null
  br i1 %8, label %9, label %13

9:                                                ; preds = %2
  %10 = load ptr, ptr %3, align 8, !tbaa !100
  %11 = getelementptr inbounds nuw %struct.Block, ptr %10, i32 0, i32 4
  %12 = load ptr, ptr %11, align 8, !tbaa !175
  call void @free_blocks(ptr noundef %12, i32 noundef 1) #13
  br label %13

13:                                               ; preds = %9, %2
  %14 = load i32, ptr %4, align 4, !tbaa !34
  %15 = icmp ne i32 %14, 0
  br i1 %15, label %16, label %17

16:                                               ; preds = %13
  call void @av_freep(ptr noundef %3)
  br label %17

17:                                               ; preds = %16, %13
  ret void
}