; Function Attrs: cold nounwind optsize uwtable
define internal fastcc void @free_blocks(ptr noundef %0, i32 noundef range(i32 0, 2) %1) unnamed_addr #0 {
  %3 = alloca ptr, align 8
  store ptr %0, ptr %3, align 8, !tbaa !133
  %4 = getelementptr inbounds nuw i8, ptr %0, i64 32
  %5 = load ptr, ptr %4, align 8, !tbaa !165
  %.not = icmp eq ptr %5, null
  br i1 %.not, label %7, label %6

6:                                                ; preds = %2
  tail call fastcc void @free_blocks(ptr noundef nonnull %5, i32 noundef 1) #14
  br label %7

7:                                                ; preds = %6, %2
  %.not1 = icmp eq i32 %1, 0
  br i1 %.not1, label %9, label %8

8:                                                ; preds = %7
  call void @av_freep(ptr noundef nonnull %3) #13
  br label %9

9:                                                ; preds = %8, %7
  ret void
}